; Function Attrs: alwaysinline norecurse nounwind uwtable
define internal void @_ZN5faiss9HeapArrayINS_4CMinIflEEE7heapifyEv.omp_outlined(ptr noalias noundef readonly captures(none) %0, ptr noalias readnone captures(none) %1, ptr noundef readonly captures(none) %2) #1 personality ptr @__gxx_personality_v0 {
  %4 = alloca i64, align 8
  %5 = alloca i64, align 8
  %6 = alloca i64, align 8
  %7 = alloca i32, align 4
  %8 = load i64, ptr %2, align 8, !tbaa !14
  %.not = icmp eq i64 %8, 0
  br i1 %.not, label %34, label %9

9:                                                ; preds = %3
  %10 = add i64 %8, -1
  call void @llvm.lifetime.start.p0(i64 8, ptr nonnull %4) #3
  store i64 0, ptr %4, align 8, !tbaa !15
  call void @llvm.lifetime.start.p0(i64 8, ptr nonnull %5) #3
  store i64 %10, ptr %5, align 8, !tbaa !15
  call void @llvm.lifetime.start.p0(i64 8, ptr nonnull %6) #3
  store i64 1, ptr %6, align 8, !tbaa !15
  call void @llvm.lifetime.start.p0(i64 4, ptr nonnull %7) #3
  store i32 0, ptr %7, align 4, !tbaa !16
  %11 = load i32, ptr %0, align 4, !tbaa !16
  call void @__kmpc_for_static_init_8u(ptr nonnull @1, i32 %11, i32 34, ptr nonnull %7, ptr nonnull %4, ptr nonnull %5, ptr nonnull %6, i64 1, i64 1)
  %12 = load i64, ptr %5, align 8, !tbaa !15
  %13 = call i64 @llvm.umin.i64(i64 %12, i64 %10)
  store i64 %13, ptr %5, align 8, !tbaa !15
  %14 = load i64, ptr %4, align 8, !tbaa !15
  %.not15 = icmp ugt i64 %14, %13
  br i1 %.not15, label %._crit_edge, label %.lr.ph

.lr.ph:                                           ; preds = %9
  %15 = getelementptr inbounds nuw i8, ptr %2, i64 8
  %16 = getelementptr inbounds nuw i8, ptr %2, i64 24
  %17 = load ptr, ptr %16, align 8, !tbaa !4
  %18 = getelementptr inbounds nuw i8, ptr %2, i64 16
  %19 = load ptr, ptr %18, align 8, !tbaa !13
  %20 = load i64, ptr %15, align 8, !tbaa !12
  %21 = icmp eq i64 %20, 0
  br i1 %21, label %._crit_edge, label %.lr.ph.split

.lr.ph.splitthread-pre-split:                     ; preds = %_ZN5faiss12heap_heapifyINS_4CMinIflEEEEvmPNT_1TEPNS3_2TIEPKS4_PKS6_m.exit
  %.pr = load i64, ptr %15, align 8, !tbaa !12
  br label %.lr.ph.split

.lr.ph.split:                                     ; preds = %.lr.ph, %.lr.ph.splitthread-pre-split
  %22 = phi i64 [ %.pr, %.lr.ph.splitthread-pre-split ], [ %20, %.lr.ph ]
  %23 = phi i64 [ %30, %.lr.ph.splitthread-pre-split ], [ %13, %.lr.ph ]
  %.013 = phi i64 [ %31, %.lr.ph.splitthread-pre-split ], [ %14, %.lr.ph ]
  %24 = mul i64 %22, %.013
  %25 = getelementptr inbounds nuw float, ptr %17, i64 %24
  %26 = getelementptr inbounds nuw i64, ptr %19, i64 %24
  %.not12 = icmp eq i64 %22, 0
  br i1 %.not12, label %_ZN5faiss12heap_heapifyINS_4CMinIflEEEEvmPNT_1TEPNS3_2TIEPKS4_PKS6_m.exit, label %.lr.ph46.i

.lr.ph46.i:                                       ; preds = %.lr.ph.split, %.lr.ph46.i
  %.045.i = phi i64 [ %29, %.lr.ph46.i ], [ 0, %.lr.ph.split ]
  %27 = getelementptr inbounds nuw float, ptr %25, i64 %.045.i
  store float 0xC7EFFFFFE0000000, ptr %27, align 4, !tbaa !18
  %28 = getelementptr inbounds nuw i64, ptr %26, i64 %.045.i
  store i64 -1, ptr %28, align 8, !tbaa !15
  %29 = add nuw i64 %.045.i, 1
  %exitcond51.not.i = icmp eq i64 %29, %22
  br i1 %exitcond51.not.i, label %_ZN5faiss12heap_heapifyINS_4CMinIflEEEEvmPNT_1TEPNS3_2TIEPKS4_PKS6_m.exit.loopexit, label %.lr.ph46.i, !llvm.loop !20

_ZN5faiss12heap_heapifyINS_4CMinIflEEEEvmPNT_1TEPNS3_2TIEPKS4_PKS6_m.exit.loopexit: ; preds = %.lr.ph46.i
  %.pre = load i64, ptr %5, align 8, !tbaa !15
  br label %_ZN5faiss12heap_heapifyINS_4CMinIflEEEEvmPNT_1TEPNS3_2TIEPKS4_PKS6_m.exit

_ZN5faiss12heap_heapifyINS_4CMinIflEEEEvmPNT_1TEPNS3_2TIEPKS4_PKS6_m.exit: ; preds = %_ZN5faiss12heap_heapifyINS_4CMinIflEEEEvmPNT_1TEPNS3_2TIEPKS4_PKS6_m.exit.loopexit, %.lr.ph.split
  %30 = phi i64 [ %.pre, %_ZN5faiss12heap_heapifyINS_4CMinIflEEEEvmPNT_1TEPNS3_2TIEPKS4_PKS6_m.exit.loopexit ], [ %23, %.lr.ph.split ]
  %31 = add nuw i64 %.013, 1
  %32 = add i64 %30, 1
  %33 = icmp ult i64 %31, %32
  br i1 %33, label %.lr.ph.splitthread-pre-split, label %._crit_edge, !llvm.loop !22

._crit_edge:                                      ; preds = %_ZN5faiss12heap_heapifyINS_4CMinIflEEEEvmPNT_1TEPNS3_2TIEPKS4_PKS6_m.exit, %.lr.ph, %9
  call void @__kmpc_for_static_fini(ptr nonnull @1, i32 %11)
  call void @llvm.lifetime.end.p0(i64 4, ptr nonnull %7) #3
  call void @llvm.lifetime.end.p0(i64 8, ptr nonnull %6) #3
  call void @llvm.lifetime.end.p0(i64 8, ptr nonnull %5) #3
  call void @llvm.lifetime.end.p0(i64 8, ptr nonnull %4) #3
  br label %34

34:                                               ; preds = %._crit_edge, %3
  ret void
}